target datalayout = "e-m:e-p270:32:32-p271:32:32-p272:64:64-i64:64-i128:128-f80:128-n8:16:32:64-S128"
target triple = "x86_64-pc-linux-gnu"

%struct.AVTaskCallbacks = type { ptr, i32, ptr, ptr, ptr }
%struct.AVExecutor = type { %struct.AVTaskCallbacks, i32, i8, ptr, ptr, %union.pthread_mutex_t, %union.pthread_cond_t, i32, ptr }
%union.pthread_mutex_t = type { %struct.__pthread_mutex_s }
%struct.__pthread_mutex_s = type { i32, i32, i32, i32, i32, i16, i16, %struct.__pthread_internal_list }
%struct.__pthread_internal_list = type { ptr, ptr }
%union.pthread_cond_t = type { %struct.__pthread_cond_s }
%struct.__pthread_cond_s = type { %union.__atomic_wide_counter, %union.__atomic_wide_counter, [2 x i32], [2 x i32], i32, i32, [2 x i32] }
%union.__atomic_wide_counter = type { i64 }
%struct.ThreadInfo = type { ptr, i64 }
%struct.AVTask = type { ptr }

; Function Attrs: nounwind uwtable
define internal ptr @remove_task(ptr noundef %0, ptr noundef %1) #0 {
  %3 = alloca ptr, align 8
  %4 = alloca ptr, align 8
  store ptr %0, ptr %3, align 8, !tbaa !42
  store ptr %1, ptr %4, align 8, !tbaa !41
  %5 = load ptr, ptr %4, align 8, !tbaa !41
  %6 = getelementptr inbounds nuw %struct.AVTask, ptr %5, i32 0, i32 0
  %7 = load ptr, ptr %6, align 8, !tbaa !49
  %8 = load ptr, ptr %3, align 8, !tbaa !42
  store ptr %7, ptr %8, align 8, !tbaa !41
  %9 = load ptr, ptr %4, align 8, !tbaa !41
  %10 = getelementptr inbounds nuw %struct.AVTask, ptr %9, i32 0, i32 0
  store ptr null, ptr %10, align 8, !tbaa !49
  %11 = load ptr, ptr %4, align 8, !tbaa !41
  ret ptr %11
}

; Function Attrs: nounwind uwtable
define internal i32 @run_one_task(ptr noundef %0, ptr noundef %1) #0 {
  %3 = alloca i32, align 4
  %4 = alloca ptr, align 8
  %5 = alloca ptr, align 8
  %6 = alloca ptr, align 8
  %7 = alloca ptr, align 8
  %8 = alloca ptr, align 8
  %9 = alloca i32, align 4
  store ptr %0, ptr %4, align 8, !tbaa !16
  store ptr %1, ptr %5, align 8, !tbaa !19
  call void @llvm.lifetime.start.p0(i64 8, ptr %6) #5
  %10 = load ptr, ptr %4, align 8, !tbaa !16
  %11 = getelementptr inbounds nuw %struct.AVExecutor, ptr %10, i32 0, i32 0
  store ptr %11, ptr %6, align 8, !tbaa !4
  call void @llvm.lifetime.start.p0(i64 8, ptr %7) #5
  %12 = load ptr, ptr %4, align 8, !tbaa !16
  %13 = getelementptr inbounds nuw %struct.AVExecutor, ptr %12, i32 0, i32 8
  store ptr %13, ptr %7, align 8, !tbaa !42
  br label %14

14:                                               ; preds = %33, %2
  %15 = load ptr, ptr %7, align 8, !tbaa !42
  %16 = load ptr, ptr %15, align 8, !tbaa !41
  %17 = icmp ne ptr %16, null
  br i1 %17, label %18, label %30

18:                                               ; preds = %14
  %19 = load ptr, ptr %6, align 8, !tbaa !4
  %20 = getelementptr inbounds nuw %struct.AVTaskCallbacks, ptr %19, i32 0, i32 3
  %21 = load ptr, ptr %20, align 8, !tbaa !13
  %22 = load ptr, ptr %7, align 8, !tbaa !42
  %23 = load ptr, ptr %22, align 8, !tbaa !41
  %24 = load ptr, ptr %6, align 8, !tbaa !4
  %25 = getelementptr inbounds nuw %struct.AVTaskCallbacks, ptr %24, i32 0, i32 0
  %26 = load ptr, ptr %25, align 8, !tbaa !11
  %27 = call i32 %21(ptr noundef %23, ptr noundef %26)
  %28 = icmp ne i32 %27, 0
  %29 = xor i1 %28, true
  br label %30

30:                                               ; preds = %18, %14
  %31 = phi i1 [ false, %14 ], [ %29, %18 ]
  br i1 %31, label %32, label %37

32:                                               ; preds = %30
  br label %33

33:                                               ; preds = %32
  %34 = load ptr, ptr %7, align 8, !tbaa !42
  %35 = load ptr, ptr %34, align 8, !tbaa !41
  %36 = getelementptr inbounds nuw %struct.AVTask, ptr %35, i32 0, i32 0
  store ptr %36, ptr %7, align 8, !tbaa !42
  br label %14, !llvm.loop !51

37:                                               ; preds = %30
  %38 = load ptr, ptr %7, align 8, !tbaa !42
  %39 = load ptr, ptr %38, align 8, !tbaa !41
  %40 = icmp ne ptr %39, null
  br i1 %40, label %41, label %73

41:                                               ; preds = %37
  call void @llvm.lifetime.start.p0(i64 8, ptr %8) #5
  %42 = load ptr, ptr %7, align 8, !tbaa !42
  %43 = load ptr, ptr %7, align 8, !tbaa !42
  %44 = load ptr, ptr %43, align 8, !tbaa !41
  %45 = call ptr @remove_task(ptr noundef %42, ptr noundef %44)
  store ptr %45, ptr %8, align 8, !tbaa !41
  %46 = load ptr, ptr %4, align 8, !tbaa !16
  %47 = getelementptr inbounds nuw %struct.AVExecutor, ptr %46, i32 0, i32 1
  %48 = load i32, ptr %47, align 8, !tbaa !28
  %49 = icmp sgt i32 %48, 0
  br i1 %49, label %50, label %54

50:                                               ; preds = %41
  %51 = load ptr, ptr %4, align 8, !tbaa !16
  %52 = getelementptr inbounds nuw %struct.AVExecutor, ptr %51, i32 0, i32 5
  %53 = call i32 @pthread_mutex_unlock(ptr noundef %52) #5
  br label %54

54:                                               ; preds = %50, %41
  %55 = load ptr, ptr %6, align 8, !tbaa !4
  %56 = getelementptr inbounds nuw %struct.AVTaskCallbacks, ptr %55, i32 0, i32 4
  %57 = load ptr, ptr %56, align 8, !tbaa !14
  %58 = load ptr, ptr %8, align 8, !tbaa !41
  %59 = load ptr, ptr %5, align 8, !tbaa !19
  %60 = load ptr, ptr %6, align 8, !tbaa !4
  %61 = getelementptr inbounds nuw %struct.AVTaskCallbacks, ptr %60, i32 0, i32 0
  %62 = load ptr, ptr %61, align 8, !tbaa !11
  %63 = call i32 %57(ptr noundef %58, ptr noundef %59, ptr noundef %62)
  %64 = load ptr, ptr %4, align 8, !tbaa !16
  %65 = getelementptr inbounds nuw %struct.AVExecutor, ptr %64, i32 0, i32 1
  %66 = load i32, ptr %65, align 8, !tbaa !28
  %67 = icmp sgt i32 %66, 0
  br i1 %67, label %68, label %72

68:                                               ; preds = %54
  %69 = load ptr, ptr %4, align 8, !tbaa !16
  %70 = getelementptr inbounds nuw %struct.AVExecutor, ptr %69, i32 0, i32 5
  %71 = call i32 @pthread_mutex_lock(ptr noundef %70) #5
  br label %72

72:                                               ; preds = %68, %54
  store i32 1, ptr %3, align 4
  store i32 1, ptr %9, align 4
  call void @llvm.lifetime.end.p0(i64 8, ptr %8) #5
  br label %74

73:                                               ; preds = %37
  store i32 0, ptr %3, align 4
  store i32 1, ptr %9, align 4
  br label %74

74:                                               ; preds = %73, %72
  call void @llvm.lifetime.end.p0(i64 8, ptr %7) #5
  call void @llvm.lifetime.end.p0(i64 8, ptr %6) #5
  %75 = load i32, ptr %3, align 4
  ret i32 %75
}

; Function Attrs: nounwind uwtable
define internal ptr @executor_worker_task(ptr noundef %0) #0 {
  %2 = alloca ptr, align 8
  %3 = alloca ptr, align 8
  %4 = alloca ptr, align 8
  %5 = alloca ptr, align 8
  store ptr %0, ptr %2, align 8, !tbaa !19
  call void @llvm.lifetime.start.p0(i64 8, ptr %3) #5
  %6 = load ptr, ptr %2, align 8, !tbaa !19
  store ptr %6, ptr %3, align 8, !tbaa !29
  call void @llvm.lifetime.start.p0(i64 8, ptr %4) #5
  %7 = load ptr, ptr %3, align 8, !tbaa !29
  %8 = getelementptr inbounds nuw %struct.ThreadInfo, ptr %7, i32 0, i32 0
  %9 = load ptr, ptr %8, align 8, !tbaa !30
  store ptr %9, ptr %4, align 8, !tbaa !16
  call void @llvm.lifetime.start.p0(i64 8, ptr %5) #5
  %10 = load ptr, ptr %4, align 8, !tbaa !16
  %11 = getelementptr inbounds nuw %struct.AVExecutor, ptr %10, i32 0, i32 4
  %12 = load ptr, ptr %11, align 8, !tbaa !26
  %13 = load ptr, ptr %3, align 8, !tbaa !29
  %14 = load ptr, ptr %4, align 8, !tbaa !16
  %15 = getelementptr inbounds nuw %struct.AVExecutor, ptr %14, i32 0, i32 3
  %16 = load ptr, ptr %15, align 8, !tbaa !27
  %17 = ptrtoint ptr %13 to i64
  %18 = ptrtoint ptr %16 to i64
  %19 = sub i64 %17, %18
  %20 = sdiv exact i64 %19, 16
  %21 = load ptr, ptr %4, align 8, !tbaa !16
  %22 = getelementptr inbounds nuw %struct.AVExecutor, ptr %21, i32 0, i32 0
  %23 = getelementptr inbounds nuw %struct.AVTaskCallbacks, ptr %22, i32 0, i32 1
  %24 = load i32, ptr %23, align 8, !tbaa !20
  %25 = sext i32 %24 to i64
  %26 = mul nsw i64 %20, %25
  %27 = getelementptr inbounds i8, ptr %12, i64 %26
  store ptr %27, ptr %5, align 8, !tbaa !19
  %28 = load ptr, ptr %4, align 8, !tbaa !16
  %29 = getelementptr inbounds nuw %struct.AVExecutor, ptr %28, i32 0, i32 5
  %30 = call i32 @pthread_mutex_lock(ptr noundef %29) #5
  br label %31

31:                                               ; preds = %49, %1
  br label %32

32:                                               ; preds = %31
  %33 = load ptr, ptr %4, align 8, !tbaa !16
  %34 = getelementptr inbounds nuw %struct.AVExecutor, ptr %33, i32 0, i32 7
  %35 = load i32, ptr %34, align 8, !tbaa !35
  %36 = icmp ne i32 %35, 0
  br i1 %36, label %37, label %38

37:                                               ; preds = %32
  br label %50

38:                                               ; preds = %32
  %39 = load ptr, ptr %4, align 8, !tbaa !16
  %40 = load ptr, ptr %5, align 8, !tbaa !19
  %41 = call i32 @run_one_task(ptr noundef %39, ptr noundef %40)
  %42 = icmp ne i32 %41, 0
  br i1 %42, label %49, label %43

43:                                               ; preds = %38
  %44 = load ptr, ptr %4, align 8, !tbaa !16
  %45 = getelementptr inbounds nuw %struct.AVExecutor, ptr %44, i32 0, i32 6
  %46 = load ptr, ptr %4, align 8, !tbaa !16
  %47 = getelementptr inbounds nuw %struct.AVExecutor, ptr %46, i32 0, i32 5
  %48 = call i32 @pthread_cond_wait(ptr noundef %45, ptr noundef %47)
  br label %49

49:                                               ; preds = %43, %38
  br label %31

50:                                               ; preds = %37
  %51 = load ptr, ptr %4, align 8, !tbaa !16
  %52 = getelementptr inbounds nuw %struct.AVExecutor, ptr %51, i32 0, i32 5
  %53 = call i32 @pthread_mutex_unlock(ptr noundef %52) #5
  call void @llvm.lifetime.end.p0(i64 8, ptr %5) #5
  call void @llvm.lifetime.end.p0(i64 8, ptr %4) #5
  call void @llvm.lifetime.end.p0(i64 8, ptr %3) #5
  ret ptr null
}