; Function Attrs: nounwind uwtable
define internal noundef ptr @executor_worker_task(ptr noundef %0) #0 {
  %2 = load ptr, ptr %0, align 8, !tbaa !25
  %3 = getelementptr inbounds nuw i8, ptr %2, i64 56
  %4 = load ptr, ptr %3, align 8, !tbaa !22
  %5 = getelementptr inbounds nuw i8, ptr %2, i64 48
  %6 = load ptr, ptr %5, align 8, !tbaa !23
  %7 = ptrtoint ptr %0 to i64
  %8 = ptrtoint ptr %6 to i64
  %9 = sub i64 %7, %8
  %10 = ashr exact i64 %9, 4
  %11 = getelementptr inbounds nuw i8, ptr %2, i64 8
  %12 = load i32, ptr %11, align 8, !tbaa !16
  %13 = sext i32 %12 to i64
  %14 = mul nsw i64 %10, %13
  %15 = getelementptr inbounds i8, ptr %4, i64 %14
  %16 = getelementptr inbounds nuw i8, ptr %2, i64 64
  %17 = tail call i32 @pthread_mutex_lock(ptr noundef nonnull %16) #5
  %18 = getelementptr inbounds nuw i8, ptr %2, i64 152
  %19 = load i32, ptr %18, align 8, !tbaa !31
  %.not17 = icmp eq i32 %19, 0
  br i1 %.not17, label %.lr.ph, label %._crit_edge

.lr.ph:                                           ; preds = %1
  %20 = getelementptr inbounds nuw i8, ptr %2, i64 160
  %21 = getelementptr inbounds nuw i8, ptr %2, i64 24
  %22 = getelementptr inbounds nuw i8, ptr %2, i64 40
  %23 = getelementptr inbounds nuw i8, ptr %2, i64 32
  %24 = getelementptr inbounds nuw i8, ptr %2, i64 104
  br label %25

25:                                               ; preds = %.lr.ph, %run_one_task.exit
  %26 = load ptr, ptr %20, align 8, !tbaa !32
  %.not25.i = icmp eq ptr %26, null
  br i1 %.not25.i, label %.loopexit, label %.lr.ph.i

.lr.ph.i:                                         ; preds = %25, %32
  %27 = phi ptr [ %33, %32 ], [ %26, %25 ]
  %.01826.i = phi ptr [ %31, %32 ], [ %20, %25 ]
  %28 = load ptr, ptr %21, align 8, !tbaa !10
  %29 = load ptr, ptr %2, align 8, !tbaa !4
  %30 = tail call i32 %28(ptr noundef nonnull %27, ptr noundef %29) #5
  %.not21.i = icmp eq i32 %30, 0
  %31 = load ptr, ptr %.01826.i, align 8, !tbaa !32
  br i1 %.not21.i, label %32, label %.critedge.i

32:                                               ; preds = %.lr.ph.i
  %33 = load ptr, ptr %31, align 8, !tbaa !32
  %.not.i = icmp eq ptr %33, null
  br i1 %.not.i, label %.loopexit, label %.lr.ph.i, !llvm.loop !33

.critedge.i:                                      ; preds = %.lr.ph.i
  %.not22.i = icmp eq ptr %31, null
  br i1 %.not22.i, label %.loopexit, label %34

34:                                               ; preds = %.critedge.i
  %35 = load ptr, ptr %31, align 8, !tbaa !34
  store ptr %35, ptr %.01826.i, align 8, !tbaa !32
  store ptr null, ptr %31, align 8, !tbaa !34
  %36 = load i32, ptr %22, align 8, !tbaa !24
  %37 = icmp sgt i32 %36, 0
  br i1 %37, label %38, label %40

38:                                               ; preds = %34
  %39 = tail call i32 @pthread_mutex_unlock(ptr noundef nonnull %16) #5
  br label %40

40:                                               ; preds = %38, %34
  %41 = load ptr, ptr %23, align 8, !tbaa !11
  %42 = load ptr, ptr %2, align 8, !tbaa !4
  %43 = tail call i32 %41(ptr noundef nonnull %31, ptr noundef %15, ptr noundef %42) #5
  %44 = load i32, ptr %22, align 8, !tbaa !24
  %45 = icmp sgt i32 %44, 0
  br i1 %45, label %46, label %run_one_task.exit

46:                                               ; preds = %40
  %47 = tail call i32 @pthread_mutex_lock(ptr noundef nonnull %16) #5
  br label %run_one_task.exit

.loopexit:                                        ; preds = %32, %.critedge.i, %25
  %48 = tail call i32 @pthread_cond_wait(ptr noundef nonnull %24, ptr noundef nonnull %16) #5
  br label %run_one_task.exit

run_one_task.exit:                                ; preds = %46, %40, %.loopexit
  %49 = load i32, ptr %18, align 8, !tbaa !31
  %.not = icmp eq i32 %49, 0
  br i1 %.not, label %25, label %._crit_edge

._crit_edge:                                      ; preds = %run_one_task.exit, %1
  %50 = tail call i32 @pthread_mutex_unlock(ptr noundef nonnull %16) #5
  ret ptr null
}